; Function Attrs: mustprogress uwtable
define internal void @_ZL20cq_shutdown_callbackP21grpc_completion_queue(ptr noundef %0) #8 {
  %2 = atomicrmw add ptr %0, i64 1 monotonic, align 8
  %3 = getelementptr inbounds nuw i8, ptr %0, i64 72
  %4 = load ptr, ptr %3, align 8, !tbaa !39
  tail call void @gpr_mu_lock(ptr noundef %4)
  %5 = getelementptr inbounds nuw i8, ptr %0, i64 272
  %6 = load i8, ptr %5, align 8, !tbaa !169, !range !56, !noundef !57
  %7 = trunc nuw i8 %6 to i1
  br i1 %7, label %8, label %18

8:                                                ; preds = %1
  %9 = load ptr, ptr %3, align 8, !tbaa !39
  tail call void @gpr_mu_unlock(ptr noundef %9)
  %10 = atomicrmw sub ptr %0, i64 1 acq_rel, align 8
  %11 = icmp eq i64 %10, 1
  br i1 %11, label %12, label %_Z22grpc_cq_internal_unrefP21grpc_completion_queue.exit, !prof !33

12:                                               ; preds = %8
  %13 = getelementptr inbounds nuw i8, ptr %0, i64 144
  %14 = load ptr, ptr %13, align 8, !tbaa !48
  %15 = getelementptr inbounds nuw i8, ptr %14, i64 32
  %16 = load ptr, ptr %15, align 8, !tbaa !49
  %17 = getelementptr inbounds nuw i8, ptr %0, i64 264
  tail call void %16(ptr noundef nonnull %17)
  br label %_Z22grpc_cq_internal_unrefP21grpc_completion_queue.exit.sink.split

18:                                               ; preds = %1
  %19 = getelementptr inbounds nuw i8, ptr %0, i64 264
  store i8 1, ptr %5, align 8, !tbaa !169
  %20 = atomicrmw sub ptr %19, i64 1 acq_rel, align 8
  %21 = icmp eq i64 %20, 1
  %22 = load ptr, ptr %3, align 8, !tbaa !39
  tail call void @gpr_mu_unlock(ptr noundef %22)
  br i1 %21, label %23, label %24

23:                                               ; preds = %18
  tail call fastcc void @_ZL27cq_finish_shutdown_callbackP21grpc_completion_queue(ptr noundef nonnull %0)
  br label %24

24:                                               ; preds = %18, %23
  %25 = atomicrmw sub ptr %0, i64 1 acq_rel, align 8
  %26 = icmp eq i64 %25, 1
  br i1 %26, label %27, label %_Z22grpc_cq_internal_unrefP21grpc_completion_queue.exit, !prof !33

27:                                               ; preds = %24
  %28 = getelementptr inbounds nuw i8, ptr %0, i64 144
  %29 = load ptr, ptr %28, align 8, !tbaa !48
  %30 = getelementptr inbounds nuw i8, ptr %29, i64 32
  %31 = load ptr, ptr %30, align 8, !tbaa !49
  tail call void %31(ptr noundef nonnull %19)
  br label %_Z22grpc_cq_internal_unrefP21grpc_completion_queue.exit.sink.split

_Z22grpc_cq_internal_unrefP21grpc_completion_queue.exit.sink.split: ; preds = %12, %27
  %.sink16.in = phi ptr [ %28, %27 ], [ %13, %12 ]
  %32 = getelementptr inbounds nuw i8, ptr %0, i64 264
  %.pn.in = getelementptr inbounds nuw i8, ptr %0, i64 216
  %.pn = load ptr, ptr %.pn.in, align 8, !tbaa !52
  %.sink13.in = getelementptr inbounds nuw i8, ptr %.pn, i64 48
  %.sink13 = load ptr, ptr %.sink13.in, align 8, !tbaa !53
  %.sink16 = load ptr, ptr %.sink16.in, align 8, !tbaa !48
  %33 = getelementptr inbounds nuw i8, ptr %.sink16, i64 8
  %34 = load i64, ptr %33, align 8, !tbaa !55
  %35 = getelementptr inbounds nuw i8, ptr %32, i64 %34
  tail call void %.sink13(ptr noundef nonnull %35)
  tail call void @gpr_free(ptr noundef nonnull %0)
  br label %_Z22grpc_cq_internal_unrefP21grpc_completion_queue.exit

_Z22grpc_cq_internal_unrefP21grpc_completion_queue.exit: ; preds = %_Z22grpc_cq_internal_unrefP21grpc_completion_queue.exit.sink.split, %24, %8
  ret void
}